; Function Attrs: mustprogress uwtable
define hidden void @_ZN4cvc58internal6theory9datatypes5utils13applySelectorERKNS0_16DTypeConstructorEmbRKNS0_12NodeTemplateILb1EEE(ptr dead_on_unwind noalias writable sret(%"class.cvc5::internal::NodeTemplate") align 8 %0, ptr noundef nonnull align 8 dereferenceable(264) %1, i64 noundef %2, i1 noundef zeroext %3, ptr noundef nonnull align 8 dereferenceable(8) %4) local_unnamed_addr #3 personality ptr @__gxx_personality_v0 {
  %6 = alloca %"class.cvc5::internal::NodeBuilder", align 8
  %7 = alloca %"class.cvc5::internal::NodeTemplate.16", align 8
  %8 = alloca %"class.cvc5::internal::NodeTemplate.16", align 8
  %9 = alloca %"class.cvc5::internal::NodeTemplate", align 8
  %10 = alloca %"class.cvc5::internal::TypeNode", align 8
  call void @llvm.lifetime.start.p0(i64 8, ptr nonnull %9) #22
  call void @_ZNK4cvc58internal12NodeTemplateILb1EE7getTypeEb(ptr dead_on_unwind nonnull writable sret(%"class.cvc5::internal::TypeNode") align 8 %10, ptr noundef nonnull align 8 dereferenceable(8) %4, i1 noundef zeroext false)
  invoke void @_ZN4cvc58internal6theory9datatypes5utils11getSelectorENS0_8TypeNodeERKNS0_16DTypeConstructorEmb(ptr dead_on_unwind nonnull writable sret(%"class.cvc5::internal::NodeTemplate") align 8 %9, ptr noundef nonnull %10, ptr noundef nonnull align 8 dereferenceable(264) %1, i64 noundef %2, i1 noundef zeroext %3)
          to label %11 unwind label %54

11:                                               ; preds = %5
  %12 = load ptr, ptr %10, align 8, !tbaa !3
  %13 = load i64, ptr %12, align 8
  %14 = and i64 %13, 1152920405095219200
  %.not.i.i = icmp eq i64 %14, 1152920405095219200
  br i1 %.not.i.i, label %_ZN4cvc58internal8TypeNodeD2Ev.exit, label %15, !prof !10

15:                                               ; preds = %11
  %16 = add i64 %13, 1152920405095219200
  %17 = and i64 %16, 1152920405095219200
  %18 = and i64 %13, -1152920405095219201
  %19 = or disjoint i64 %17, %18
  store i64 %19, ptr %12, align 8
  %20 = icmp eq i64 %17, 0
  br i1 %20, label %21, label %_ZN4cvc58internal8TypeNodeD2Ev.exit, !prof !10

21:                                               ; preds = %15
  invoke void @_ZN4cvc58internal4expr9NodeValue15markForDeletionEv(ptr noundef nonnull align 8 dereferenceable(24) %12)
          to label %_ZN4cvc58internal8TypeNodeD2Ev.exit unwind label %22

22:                                               ; preds = %21
  %23 = landingpad { ptr, i32 }
          catch ptr null
  %24 = extractvalue { ptr, i32 } %23, 0
  call void @__clang_call_terminate(ptr %24) #21
  unreachable

_ZN4cvc58internal8TypeNodeD2Ev.exit:              ; preds = %11, %15, %21
  %25 = load ptr, ptr %9, align 8, !tbaa !11
  %26 = load ptr, ptr %4, align 8, !tbaa !11
  call void @llvm.lifetime.start.p0(i64 8, ptr nonnull %7)
  call void @llvm.lifetime.start.p0(i64 8, ptr nonnull %8)
  call void @llvm.lifetime.start.p0(i64 128, ptr nonnull %6) #22, !noalias !13
  %27 = getelementptr inbounds nuw i8, ptr %25, i64 16
  %28 = load ptr, ptr %27, align 8, !tbaa !16, !noalias !13
  invoke void @_ZN4cvc58internal11NodeBuilderC1EPNS0_11NodeManagerENS0_4kind6Kind_tE(ptr noundef nonnull align 8 dereferenceable(124) %6, ptr noundef %28, i32 noundef 225)
          to label %.noexc unwind label %56

.noexc:                                           ; preds = %_ZN4cvc58internal8TypeNodeD2Ev.exit
  store ptr %25, ptr %7, align 8, !tbaa !21, !noalias !13
  %29 = invoke noundef nonnull align 8 dereferenceable(124) ptr @_ZN4cvc58internal11NodeBuilderlsENS0_12NodeTemplateILb0EEE(ptr noundef nonnull align 8 dereferenceable(124) %6, ptr noundef nonnull %7)
          to label %30 unwind label %35, !noalias !13

30:                                               ; preds = %.noexc
  store ptr %26, ptr %8, align 8, !tbaa !21, !noalias !13
  %31 = invoke noundef nonnull align 8 dereferenceable(124) ptr @_ZN4cvc58internal11NodeBuilderlsENS0_12NodeTemplateILb0EEE(ptr noundef nonnull align 8 dereferenceable(124) %29, ptr noundef nonnull %8)
          to label %32 unwind label %37, !noalias !13

32:                                               ; preds = %30
  invoke void @_ZN4cvc58internal11NodeBuilder13constructNodeEv(ptr dead_on_unwind writable sret(%"class.cvc5::internal::NodeTemplate") align 8 %0, ptr noundef nonnull align 8 dereferenceable(124) %6)
          to label %40 unwind label %33

33:                                               ; preds = %32
  %34 = landingpad { ptr, i32 }
          cleanup
  br label %39

35:                                               ; preds = %.noexc
  %36 = landingpad { ptr, i32 }
          cleanup
  br label %39

37:                                               ; preds = %30
  %38 = landingpad { ptr, i32 }
          cleanup
  br label %39

39:                                               ; preds = %37, %35, %33
  %.pn5.i = phi { ptr, i32 } [ %34, %33 ], [ %38, %37 ], [ %36, %35 ]
  call void @_ZN4cvc58internal11NodeBuilderD1Ev(ptr noundef nonnull align 8 dereferenceable(124) %6) #22
  call void @llvm.lifetime.end.p0(i64 128, ptr nonnull %6) #22, !noalias !13
  br label %.body

40:                                               ; preds = %32
  call void @_ZN4cvc58internal11NodeBuilderD1Ev(ptr noundef nonnull align 8 dereferenceable(124) %6) #22
  call void @llvm.lifetime.end.p0(i64 128, ptr nonnull %6) #22, !noalias !13
  call void @llvm.lifetime.end.p0(i64 8, ptr nonnull %7)
  call void @llvm.lifetime.end.p0(i64 8, ptr nonnull %8)
  %41 = load ptr, ptr %9, align 8, !tbaa !11
  %42 = load i64, ptr %41, align 8
  %43 = and i64 %42, 1152920405095219200
  %.not.i.i8 = icmp eq i64 %43, 1152920405095219200
  br i1 %.not.i.i8, label %_ZN4cvc58internal12NodeTemplateILb1EED2Ev.exit, label %44, !prof !10

44:                                               ; preds = %40
  %45 = add i64 %42, 1152920405095219200
  %46 = and i64 %45, 1152920405095219200
  %47 = and i64 %42, -1152920405095219201
  %48 = or disjoint i64 %46, %47
  store i64 %48, ptr %41, align 8
  %49 = icmp eq i64 %46, 0
  br i1 %49, label %50, label %_ZN4cvc58internal12NodeTemplateILb1EED2Ev.exit, !prof !10

50:                                               ; preds = %44
  invoke void @_ZN4cvc58internal4expr9NodeValue15markForDeletionEv(ptr noundef nonnull align 8 dereferenceable(24) %41)
          to label %_ZN4cvc58internal12NodeTemplateILb1EED2Ev.exit unwind label %51

51:                                               ; preds = %50
  %52 = landingpad { ptr, i32 }
          catch ptr null
  %53 = extractvalue { ptr, i32 } %52, 0
  call void @__clang_call_terminate(ptr %53) #21
  unreachable

_ZN4cvc58internal12NodeTemplateILb1EED2Ev.exit:   ; preds = %40, %44, %50
  call void @llvm.lifetime.end.p0(i64 8, ptr nonnull %9) #22
  ret void

54:                                               ; preds = %5
  %55 = landingpad { ptr, i32 }
          cleanup
  call void @_ZN4cvc58internal8TypeNodeD2Ev(ptr noundef nonnull align 8 dereferenceable(8) %10) #22
  br label %58

56:                                               ; preds = %_ZN4cvc58internal8TypeNodeD2Ev.exit
  %57 = landingpad { ptr, i32 }
          cleanup
  br label %.body

.body:                                            ; preds = %39, %56
  %eh.lpad-body = phi { ptr, i32 } [ %57, %56 ], [ %.pn5.i, %39 ]
  call void @_ZN4cvc58internal12NodeTemplateILb1EED2Ev(ptr noundef nonnull align 8 dereferenceable(8) %9) #22
  br label %58

58:                                               ; preds = %.body, %54
  %.pn = phi { ptr, i32 } [ %eh.lpad-body, %.body ], [ %55, %54 ]
  call void @llvm.lifetime.end.p0(i64 8, ptr nonnull %9) #22
  resume { ptr, i32 } %.pn
}